target datalayout = "e-m:e-p270:32:32-p271:32:32-p272:64:64-i64:64-i128:128-f80:128-n8:16:32:64-S128"
target triple = "x86_64-pc-linux-gnu"

%"class.clang::MultiplexExternalSemaSource" = type { %"class.clang::ExternalSemaSource", %"class.llvm::SmallVector" }
%"class.clang::ExternalSemaSource" = type { %"class.clang::ExternalASTSource" }
%"class.clang::ExternalASTSource" = type { ptr, %"class.llvm::RefCountedBase", i32 }
%"class.llvm::RefCountedBase" = type { i32 }
%"class.llvm::SmallVector" = type { %"class.llvm::SmallVectorImpl", %"struct.llvm::SmallVectorStorage" }
%"class.llvm::SmallVectorImpl" = type { %"class.llvm::SmallVectorTemplateBase" }
%"class.llvm::SmallVectorTemplateBase" = type { %"class.llvm::SmallVectorTemplateCommon" }
%"class.llvm::SmallVectorTemplateCommon" = type { %"class.llvm::SmallVectorBase" }
%"class.llvm::SmallVectorBase" = type { ptr, i32, i32 }
%"struct.llvm::SmallVectorStorage" = type { [16 x i8] }

; Function Attrs: mustprogress nounwind uwtable
define linkonce_odr hidden noundef ptr @_ZN4llvm25SmallVectorTemplateCommonIPN5clang18ExternalSemaSourceEvE5beginEv(ptr noundef nonnull align 8 dereferenceable(16) %0) #0 comdat align 2 {
  %2 = alloca ptr, align 8
  store ptr %0, ptr %2, align 8
  %3 = load ptr, ptr %2, align 8
  %4 = getelementptr inbounds nuw %"class.llvm::SmallVectorBase", ptr %3, i32 0, i32 0
  %5 = load ptr, ptr %4, align 8
  ret ptr %5
}

; Function Attrs: mustprogress nounwind uwtable
define linkonce_odr hidden noundef nonnull align 8 dereferenceable(8) ptr @_ZN4llvm25SmallVectorTemplateCommonIPN5clang18ExternalSemaSourceEvEixEm(ptr noundef nonnull align 8 dereferenceable(16) %0, i64 noundef %1) #0 comdat align 2 {
  %3 = alloca ptr, align 8
  %4 = alloca i64, align 8
  store ptr %0, ptr %3, align 8
  store i64 %1, ptr %4, align 8
  %5 = load ptr, ptr %3, align 8
  %6 = call noundef ptr @_ZN4llvm25SmallVectorTemplateCommonIPN5clang18ExternalSemaSourceEvE5beginEv(ptr noundef nonnull align 8 dereferenceable(16) %5)
  %7 = load i64, ptr %4, align 8
  %8 = getelementptr inbounds ptr, ptr %6, i64 %7
  ret ptr %8
}

; Function Attrs: mustprogress nounwind uwtable
define dso_local void @_ZN5clang27MultiplexExternalSemaSource20StartedDeserializingEv(ptr noundef nonnull align 8 dereferenceable(48) %0) unnamed_addr #0 align 2 {
  %2 = alloca ptr, align 8
  %3 = alloca i64, align 8
  store ptr %0, ptr %2, align 8
  %4 = load ptr, ptr %2, align 8
  store i64 0, ptr %3, align 8
  br label %5

5:                                                ; preds = %18, %1
  %6 = load i64, ptr %3, align 8
  %7 = getelementptr inbounds nuw %"class.clang::MultiplexExternalSemaSource", ptr %4, i32 0, i32 1
  %8 = call noundef i64 @_ZNK4llvm15SmallVectorBaseIjE4sizeEv(ptr noundef nonnull align 8 dereferenceable(16) %7)
  %9 = icmp ult i64 %6, %8
  br i1 %9, label %10, label %21

10:                                               ; preds = %5
  %11 = getelementptr inbounds nuw %"class.clang::MultiplexExternalSemaSource", ptr %4, i32 0, i32 1
  %12 = load i64, ptr %3, align 8
  %13 = call noundef nonnull align 8 dereferenceable(8) ptr @_ZN4llvm25SmallVectorTemplateCommonIPN5clang18ExternalSemaSourceEvEixEm(ptr noundef nonnull align 8 dereferenceable(16) %11, i64 noundef %12)
  %14 = load ptr, ptr %13, align 8
  %15 = load ptr, ptr %14, align 8
  %16 = getelementptr inbounds ptr, ptr %15, i64 20
  %17 = load ptr, ptr %16, align 8
  call void %17(ptr noundef nonnull align 8 dereferenceable(16) %14)
  br label %18

18:                                               ; preds = %10
  %19 = load i64, ptr %3, align 8
  %20 = add i64 %19, 1
  store i64 %20, ptr %3, align 8
  br label %5, !llvm.loop !18

21:                                               ; preds = %5
  ret void
}